; Function Attrs: mustprogress nounwind
define internal void @_ZN3tbb6detail2d211feeder_implIZN4mold3elfL4markINS4_6X86_64EEEvRNS4_7ContextIT_EERNS0_2d117concurrent_vectorIPNS4_12InputSectionIS8_EENSB_23cache_aligned_allocatorISF_EEEEEUlPNSD_IS6_EERNSB_6feederISL_EEE_SL_E17internal_add_moveEOSL_(ptr noundef nonnull align 8 dereferenceable(32) %this, ptr nocapture noundef nonnull readonly align 8 dereferenceable(8) %item) unnamed_addr #4 align 2 {
entry:
  %alloc = alloca %"class.tbb::detail::d1::small_object_allocator", align 8
  store ptr null, ptr %alloc, align 8
  %call.i = call noundef ptr @_ZN3tbb6detail2r18allocateERPNS0_2d117small_object_poolEm(ptr noundef nonnull align 8 dereferenceable(8) %alloc, i64 noundef 128) #11
  %0 = getelementptr inbounds i8, ptr %call.i, i64 8
  call void @llvm.memset.p0.i64(ptr noundef nonnull align 8 dereferenceable(56) %0, i8 0, i64 56, i1 false)
  store ptr getelementptr inbounds ({ [6 x ptr] }, ptr @_ZTVN3tbb6detail2d216feeder_item_taskIZN4mold3elfL4markINS4_6X86_64EEEvRNS4_7ContextIT_EERNS0_2d117concurrent_vectorIPNS4_12InputSectionIS8_EENSB_23cache_aligned_allocatorISF_EEEEEUlPNSD_IS6_EERNSB_6feederISL_EEE_SL_EE, i64 0, i32 0, i64 2), ptr %call.i, align 64
  %item.i.i = getelementptr inbounds i8, ptr %call.i, i64 64
  %1 = load ptr, ptr %item, align 8
  store ptr %1, ptr %item.i.i, align 64
  %my_feeder.i.i = getelementptr inbounds i8, ptr %call.i, i64 72
  store ptr %this, ptr %my_feeder.i.i, align 8
  %my_allocator.i.i = getelementptr inbounds i8, ptr %call.i, i64 80
  %2 = load i64, ptr %alloc, align 8
  store i64 %2, ptr %my_allocator.i.i, align 16
  %my_wait_context = getelementptr inbounds i8, ptr %this, i64 16
  %3 = load ptr, ptr %my_wait_context, align 8
  %m_ref_count.i.i = getelementptr inbounds i8, ptr %3, i64 8
  %4 = atomicrmw add ptr %m_ref_count.i.i, i64 1 seq_cst, align 8
  %tobool.not.i.i = icmp eq i64 %4, -1
  br i1 %tobool.not.i.i, label %if.then.i.i, label %_ZN3tbb6detail2d112wait_context7reserveEj.exit

if.then.i.i:                                      ; preds = %entry
  %5 = ptrtoint ptr %3 to i64
  call void @_ZN3tbb6detail2r114notify_waitersEm(i64 noundef %5) #11
  br label %_ZN3tbb6detail2d112wait_context7reserveEj.exit

_ZN3tbb6detail2d112wait_context7reserveEj.exit:   ; preds = %entry, %if.then.i.i
  %my_execution_context = getelementptr inbounds i8, ptr %this, i64 24
  %6 = load ptr, ptr %my_execution_context, align 8
  call void @_ZN3tbb6detail2r15spawnERNS0_2d14taskERNS2_18task_group_contextE(ptr noundef nonnull align 64 dereferenceable(64) %call.i, ptr noundef nonnull align 8 dereferenceable(128) %6) #11
  ret void
}